; Function Attrs: mustprogress uwtable
define void @_ZN6icu_7717StringTrieBuilder21IntermediateValueNode5writeERS0_(ptr noundef nonnull align 8 captures(none) dereferenceable(32) initializes((12, 16)) %0, ptr noundef nonnull align 8 dereferenceable(16) %1) unnamed_addr #2 align 2 {
  %3 = getelementptr inbounds nuw i8, ptr %0, i64 24
  %4 = load ptr, ptr %3, align 8, !tbaa !29
  %5 = load ptr, ptr %4, align 8, !tbaa !3
  %6 = getelementptr inbounds nuw i8, ptr %5, i64 40
  %7 = load ptr, ptr %6, align 8
  tail call void %7(ptr noundef nonnull align 8 dereferenceable(16) %4, ptr noundef nonnull align 8 dereferenceable(16) %1)
  %8 = getelementptr inbounds nuw i8, ptr %0, i64 20
  %9 = load i32, ptr %8, align 4, !tbaa !24
  %10 = load ptr, ptr %1, align 8, !tbaa !3
  %11 = getelementptr inbounds nuw i8, ptr %10, i64 136
  %12 = load ptr, ptr %11, align 8
  %13 = tail call noundef i32 %12(ptr noundef nonnull align 8 dereferenceable(16) %1, i32 noundef %9, i8 noundef signext 0)
  %14 = getelementptr inbounds nuw i8, ptr %0, i64 12
  store i32 %13, ptr %14, align 4, !tbaa !21
  ret void
}